; Function Attrs: nounwind uwtable
define void @BrotliDecoderDestroyInstance(ptr noundef %0) local_unnamed_addr #1 {
  %.not = icmp eq ptr %0, null
  br i1 %.not, label %7, label %2

2:                                                ; preds = %1
  %3 = getelementptr inbounds nuw i8, ptr %0, i64 56
  %4 = load ptr, ptr %3, align 8, !tbaa !16
  %5 = getelementptr inbounds nuw i8, ptr %0, i64 64
  %6 = load ptr, ptr %5, align 8, !tbaa !17
  tail call void @BrotliDecoderStateCleanup(ptr noundef nonnull %0) #22
  tail call void %4(ptr noundef %6, ptr noundef nonnull %0) #22
  br label %7

7:                                                ; preds = %1, %2
  ret void
}